; Function Attrs: mustprogress uwtable
define void @_ZNK5Ipopt14DenseGenMatrix18ComputeRowAMaxImplERNS_6VectorEb(ptr noundef nonnull readonly align 8 captures(none) dereferenceable(104) %0, ptr noundef nonnull align 8 dereferenceable(205) %1, i1 zeroext %2) unnamed_addr #2 align 2 {
  %4 = getelementptr inbounds nuw i8, ptr %1, i64 232
  %5 = load i8, ptr %4, align 8, !tbaa !102, !range !103, !noundef !104
  %6 = trunc nuw i8 %5 to i1
  br i1 %6, label %7, label %12

7:                                                ; preds = %3
  %8 = getelementptr inbounds nuw i8, ptr %1, i64 233
  %9 = load i8, ptr %8, align 1, !tbaa !105, !range !103, !noundef !104
  %10 = trunc nuw i8 %9 to i1
  br i1 %10, label %11, label %12

11:                                               ; preds = %7
  tail call void @_ZN5Ipopt11DenseVector22set_values_from_scalarEv(ptr noundef nonnull align 8 dereferenceable(248) %1)
  br label %12

12:                                               ; preds = %11, %7, %3
  tail call void @_ZN5Ipopt12TaggedObject13ObjectChangedEv(ptr noundef nonnull align 8 dereferenceable(248) %1)
  store i8 1, ptr %4, align 8, !tbaa !102
  %13 = getelementptr inbounds nuw i8, ptr %1, i64 233
  store i8 0, ptr %13, align 1, !tbaa !105
  %14 = getelementptr inbounds nuw i8, ptr %1, i64 216
  %15 = load ptr, ptr %14, align 8, !tbaa !38
  %16 = icmp eq ptr %15, null
  br i1 %16, label %17, label %_ZN5Ipopt11DenseVector6ValuesEv.exit

17:                                               ; preds = %12
  %18 = getelementptr inbounds nuw i8, ptr %1, i64 208
  %19 = load ptr, ptr %18, align 8, !tbaa !106
  %20 = getelementptr inbounds nuw i8, ptr %19, i64 12
  %21 = load i32, ptr %20, align 4, !tbaa !107
  %22 = icmp sgt i32 %21, 0
  br i1 %22, label %23, label %_ZNK5Ipopt16DenseVectorSpace23AllocateInternalStorageEv.exit.i.i

23:                                               ; preds = %17
  %24 = zext nneg i32 %21 to i64
  %25 = shl nuw nsw i64 %24, 3
  %26 = tail call noalias noundef nonnull ptr @_Znam(i64 noundef %25) #21
  br label %_ZNK5Ipopt16DenseVectorSpace23AllocateInternalStorageEv.exit.i.i

_ZNK5Ipopt16DenseVectorSpace23AllocateInternalStorageEv.exit.i.i: ; preds = %23, %17
  %.0.i.i.i = phi ptr [ %26, %23 ], [ null, %17 ]
  store ptr %.0.i.i.i, ptr %14, align 8, !tbaa !38
  br label %_ZN5Ipopt11DenseVector6ValuesEv.exit

_ZN5Ipopt11DenseVector6ValuesEv.exit:             ; preds = %12, %_ZNK5Ipopt16DenseVectorSpace23AllocateInternalStorageEv.exit.i.i
  %27 = phi ptr [ %15, %12 ], [ %.0.i.i.i, %_ZNK5Ipopt16DenseVectorSpace23AllocateInternalStorageEv.exit.i.i ]
  %28 = getelementptr inbounds nuw i8, ptr %0, i64 56
  %29 = load ptr, ptr %28, align 8, !tbaa !6
  %30 = getelementptr inbounds nuw i8, ptr %29, i64 12
  %31 = load i32, ptr %30, align 4, !tbaa !33
  %32 = icmp sgt i32 %31, 0
  br i1 %32, label %.preheader.lr.ph, label %._crit_edge19

.preheader.lr.ph:                                 ; preds = %_ZN5Ipopt11DenseVector6ValuesEv.exit
  %33 = getelementptr inbounds nuw i8, ptr %29, i64 16
  %34 = load i32, ptr %33, align 8, !tbaa !31
  %35 = icmp sgt i32 %34, 0
  br i1 %35, label %.preheader.us.preheader, label %._crit_edge19

.preheader.us.preheader:                          ; preds = %.preheader.lr.ph
  %36 = getelementptr inbounds nuw i8, ptr %0, i64 80
  %37 = load ptr, ptr %36, align 8, !tbaa !34
  %wide.trip.count = zext nneg i32 %31 to i64
  br label %.preheader.us

.preheader.us:                                    ; preds = %.preheader.us.preheader, %._crit_edge.us
  %indvars.iv = phi i64 [ 0, %.preheader.us.preheader ], [ %indvars.iv.next, %._crit_edge.us ]
  %.01317.us = phi ptr [ %37, %.preheader.us.preheader ], [ %43, %._crit_edge.us ]
  %38 = getelementptr inbounds nuw double, ptr %27, i64 %indvars.iv
  %.promoted.us = load double, ptr %38, align 8, !tbaa !47
  br label %39

39:                                               ; preds = %.preheader.us, %39
  %.sroa.speculated.i16.us = phi double [ %.promoted.us, %.preheader.us ], [ %.sroa.speculated.i.us, %39 ]
  %.015.us = phi i32 [ 0, %.preheader.us ], [ %44, %39 ]
  %.114.us = phi ptr [ %.01317.us, %.preheader.us ], [ %43, %39 ]
  %40 = load double, ptr %.114.us, align 8, !tbaa !47
  %41 = tail call noundef double @llvm.fabs.f64(double %40)
  %42 = fcmp olt double %.sroa.speculated.i16.us, %41
  %.sroa.speculated.i.us = select i1 %42, double %41, double %.sroa.speculated.i16.us
  store double %.sroa.speculated.i.us, ptr %38, align 8, !tbaa !47
  %43 = getelementptr inbounds nuw i8, ptr %.114.us, i64 8
  %44 = add nuw nsw i32 %.015.us, 1
  %exitcond.not = icmp eq i32 %44, %34
  br i1 %exitcond.not, label %._crit_edge.us, label %39, !llvm.loop !112

._crit_edge.us:                                   ; preds = %39
  %indvars.iv.next = add nuw nsw i64 %indvars.iv, 1
  %exitcond22.not = icmp eq i64 %indvars.iv.next, %wide.trip.count
  br i1 %exitcond22.not, label %._crit_edge19, label %.preheader.us, !llvm.loop !113

._crit_edge19:                                    ; preds = %._crit_edge.us, %.preheader.lr.ph, %_ZN5Ipopt11DenseVector6ValuesEv.exit
  ret void
}